target datalayout = "e-m:e-p270:32:32-p271:32:32-p272:64:64-i64:64-i128:128-f80:128-n8:16:32:64-S128"
target triple = "x86_64-pc-linux-gnu"

%struct.strbuf = type { i64, i64, ptr }
%struct.repository = type { ptr, ptr, ptr, ptr, ptr, %struct.strmap, %struct.strmap, %struct.repo_path_cache, ptr, ptr, ptr, ptr, %struct.repo_settings, ptr, ptr, ptr, ptr, ptr, ptr, i32, i32, i32, ptr, ptr, i32, i32, i8 }
%struct.strmap = type { %struct.hashmap, ptr, i8 }
%struct.hashmap = type { ptr, ptr, ptr, i32, i32, i32, i32, i8 }
%struct.repo_path_cache = type { ptr, ptr, ptr, ptr, ptr, ptr, ptr }
%struct.repo_settings = type { i32, i32, i32, i32, i32, i32, i32, i32, i32, i32, i32, i32, ptr, i32, i32, i32, i32, i32, i32, i32, i64, i64, i64 }

@.str.11 = private unnamed_addr constant [3 x i8] c"./\00", align 1

; Function Attrs: inlinehint nounwind uwtable
define internal zeroext i1 @skip_prefix(ptr noundef %0, ptr noundef %1, ptr noundef %2) #2 {
  %4 = alloca i1, align 1
  %5 = alloca ptr, align 8
  %6 = alloca ptr, align 8
  %7 = alloca ptr, align 8
  store ptr %0, ptr %5, align 8, !tbaa !43
  store ptr %1, ptr %6, align 8, !tbaa !43
  store ptr %2, ptr %7, align 8, !tbaa !82
  br label %8

8:                                                ; preds = %16, %3
  %9 = load ptr, ptr %6, align 8, !tbaa !43
  %10 = load i8, ptr %9, align 1, !tbaa !18
  %11 = icmp ne i8 %10, 0
  br i1 %11, label %15, label %12

12:                                               ; preds = %8
  %13 = load ptr, ptr %5, align 8, !tbaa !43
  %14 = load ptr, ptr %7, align 8, !tbaa !82
  store ptr %13, ptr %14, align 8, !tbaa !43
  store i1 true, ptr %4, align 1
  br label %27

15:                                               ; preds = %8
  br label %16

16:                                               ; preds = %15
  %17 = load ptr, ptr %5, align 8, !tbaa !43
  %18 = getelementptr inbounds nuw i8, ptr %17, i32 1
  store ptr %18, ptr %5, align 8, !tbaa !43
  %19 = load i8, ptr %17, align 1, !tbaa !18
  %20 = sext i8 %19 to i32
  %21 = load ptr, ptr %6, align 8, !tbaa !43
  %22 = getelementptr inbounds nuw i8, ptr %21, i32 1
  store ptr %22, ptr %6, align 8, !tbaa !43
  %23 = load i8, ptr %21, align 1, !tbaa !18
  %24 = sext i8 %23 to i32
  %25 = icmp eq i32 %20, %24
  br i1 %25, label %8, label %26, !llvm.loop !84

26:                                               ; preds = %16
  store i1 false, ptr %4, align 1
  br label %27

27:                                               ; preds = %26, %12
  %28 = load i1, ptr %4, align 1
  ret i1 %28
}

; Function Attrs: nounwind uwtable
define internal ptr @cleanup_path(ptr noundef %0) #0 {
  %2 = alloca ptr, align 8
  store ptr %0, ptr %2, align 8, !tbaa !43
  %3 = load ptr, ptr %2, align 8, !tbaa !43
  %4 = call zeroext i1 @skip_prefix(ptr noundef %3, ptr noundef @.str.11, ptr noundef %2)
  br i1 %4, label %5, label %15

5:                                                ; preds = %1
  br label %6

6:                                                ; preds = %11, %5
  %7 = load ptr, ptr %2, align 8, !tbaa !43
  %8 = load i8, ptr %7, align 1, !tbaa !18
  %9 = sext i8 %8 to i32
  %10 = icmp eq i32 %9, 47
  br i1 %10, label %11, label %14

11:                                               ; preds = %6
  %12 = load ptr, ptr %2, align 8, !tbaa !43
  %13 = getelementptr inbounds nuw i8, ptr %12, i32 1
  store ptr %13, ptr %2, align 8, !tbaa !43
  br label %6, !llvm.loop !75

14:                                               ; preds = %6
  br label %15

15:                                               ; preds = %14, %1
  %16 = load ptr, ptr %2, align 8, !tbaa !43
  ret ptr %16
}

; Function Attrs: inlinehint nounwind uwtable
define internal i64 @strbuf_avail(ptr noundef %0) #2 {
  %2 = alloca ptr, align 8
  store ptr %0, ptr %2, align 8, !tbaa !8
  %3 = load ptr, ptr %2, align 8, !tbaa !8
  %4 = getelementptr inbounds nuw %struct.strbuf, ptr %3, i32 0, i32 0
  %5 = load i64, ptr %4, align 8, !tbaa !13
  %6 = icmp ne i64 %5, 0
  br i1 %6, label %7, label %16

7:                                                ; preds = %1
  %8 = load ptr, ptr %2, align 8, !tbaa !8
  %9 = getelementptr inbounds nuw %struct.strbuf, ptr %8, i32 0, i32 0
  %10 = load i64, ptr %9, align 8, !tbaa !13
  %11 = load ptr, ptr %2, align 8, !tbaa !8
  %12 = getelementptr inbounds nuw %struct.strbuf, ptr %11, i32 0, i32 1
  %13 = load i64, ptr %12, align 8, !tbaa !16
  %14 = sub i64 %10, %13
  %15 = sub i64 %14, 1
  br label %17

16:                                               ; preds = %1
  br label %17

17:                                               ; preds = %16, %7
  %18 = phi i64 [ %15, %7 ], [ 0, %16 ]
  ret i64 %18
}

; Function Attrs: nounwind uwtable
define internal void @strbuf_cleanup_path(ptr noundef %0) #0 {
  %2 = alloca ptr, align 8
  %3 = alloca ptr, align 8
  store ptr %0, ptr %2, align 8, !tbaa !8
  call void @llvm.lifetime.start.p0(i64 8, ptr %3) #12
  %4 = load ptr, ptr %2, align 8, !tbaa !8
  %5 = getelementptr inbounds nuw %struct.strbuf, ptr %4, i32 0, i32 2
  %6 = load ptr, ptr %5, align 8, !tbaa !17
  %7 = call ptr @cleanup_path(ptr noundef %6)
  store ptr %7, ptr %3, align 8, !tbaa !43
  %8 = load ptr, ptr %3, align 8, !tbaa !43
  %9 = load ptr, ptr %2, align 8, !tbaa !8
  %10 = getelementptr inbounds nuw %struct.strbuf, ptr %9, i32 0, i32 2
  %11 = load ptr, ptr %10, align 8, !tbaa !17
  %12 = icmp ugt ptr %8, %11
  br i1 %12, label %13, label %22

13:                                               ; preds = %1
  %14 = load ptr, ptr %2, align 8, !tbaa !8
  %15 = load ptr, ptr %3, align 8, !tbaa !43
  %16 = load ptr, ptr %2, align 8, !tbaa !8
  %17 = getelementptr inbounds nuw %struct.strbuf, ptr %16, i32 0, i32 2
  %18 = load ptr, ptr %17, align 8, !tbaa !17
  %19 = ptrtoint ptr %15 to i64
  %20 = ptrtoint ptr %18 to i64
  %21 = sub i64 %19, %20
  call void @strbuf_remove(ptr noundef %14, i64 noundef 0, i64 noundef %21)
  br label %22

22:                                               ; preds = %13, %1
  call void @llvm.lifetime.end.p0(i64 8, ptr %3) #12
  ret void
}

; Function Attrs: inlinehint nounwind uwtable
define internal void @strbuf_addch(ptr noundef %0, i32 noundef %1) #2 {
  %3 = alloca ptr, align 8
  %4 = alloca i32, align 4
  store ptr %0, ptr %3, align 8, !tbaa !8
  store i32 %1, ptr %4, align 4, !tbaa !4
  %5 = load ptr, ptr %3, align 8, !tbaa !8
  %6 = call i64 @strbuf_avail(ptr noundef %5)
  %7 = icmp ne i64 %6, 0
  br i1 %7, label %10, label %8

8:                                                ; preds = %2
  %9 = load ptr, ptr %3, align 8, !tbaa !8
  call void @strbuf_grow(ptr noundef %9, i64 noundef 1)
  br label %10

10:                                               ; preds = %8, %2
  %11 = load i32, ptr %4, align 4, !tbaa !4
  %12 = trunc i32 %11 to i8
  %13 = load ptr, ptr %3, align 8, !tbaa !8
  %14 = getelementptr inbounds nuw %struct.strbuf, ptr %13, i32 0, i32 2
  %15 = load ptr, ptr %14, align 8, !tbaa !17
  %16 = load ptr, ptr %3, align 8, !tbaa !8
  %17 = getelementptr inbounds nuw %struct.strbuf, ptr %16, i32 0, i32 1
  %18 = load i64, ptr %17, align 8, !tbaa !16
  %19 = add i64 %18, 1
  store i64 %19, ptr %17, align 8, !tbaa !16
  %20 = getelementptr inbounds nuw i8, ptr %15, i64 %18
  store i8 %12, ptr %20, align 1, !tbaa !18
  %21 = load ptr, ptr %3, align 8, !tbaa !8
  %22 = getelementptr inbounds nuw %struct.strbuf, ptr %21, i32 0, i32 2
  %23 = load ptr, ptr %22, align 8, !tbaa !17
  %24 = load ptr, ptr %3, align 8, !tbaa !8
  %25 = getelementptr inbounds nuw %struct.strbuf, ptr %24, i32 0, i32 1
  %26 = load i64, ptr %25, align 8, !tbaa !16
  %27 = getelementptr inbounds nuw i8, ptr %23, i64 %26
  store i8 0, ptr %27, align 1, !tbaa !18
  ret void
}

; Function Attrs: inlinehint nounwind uwtable
define internal i32 @git_is_dir_sep(i32 noundef %0) #2 {
  %2 = alloca i32, align 4
  store i32 %0, ptr %2, align 4, !tbaa !4
  %3 = load i32, ptr %2, align 4, !tbaa !4
  %4 = icmp eq i32 %3, 47
  %5 = zext i1 %4 to i32
  ret i32 %5
}

; Function Attrs: inlinehint nounwind uwtable
define internal void @strbuf_addstr(ptr noundef %0, ptr noundef %1) #2 {
  %3 = alloca ptr, align 8
  %4 = alloca ptr, align 8
  store ptr %0, ptr %3, align 8, !tbaa !8
  store ptr %1, ptr %4, align 8, !tbaa !43
  %5 = load ptr, ptr %3, align 8, !tbaa !8
  %6 = load ptr, ptr %4, align 8, !tbaa !43
  %7 = load ptr, ptr %4, align 8, !tbaa !43
  %8 = call i64 @strlen(ptr noundef %7) #14
  call void @strbuf_add(ptr noundef %5, ptr noundef %6, i64 noundef %8)
  ret void
}

; Function Attrs: nounwind uwtable
define internal void @do_worktree_path(ptr noundef %0, ptr noundef %1, ptr noundef %2, ptr noundef %3) #0 {
  %5 = alloca ptr, align 8
  %6 = alloca ptr, align 8
  %7 = alloca ptr, align 8
  %8 = alloca ptr, align 8
  store ptr %0, ptr %5, align 8, !tbaa !19
  store ptr %1, ptr %6, align 8, !tbaa !8
  store ptr %2, ptr %7, align 8, !tbaa !43
  store ptr %3, ptr %8, align 8, !tbaa !49
  %9 = load ptr, ptr %6, align 8, !tbaa !8
  %10 = load ptr, ptr %5, align 8, !tbaa !19
  %11 = getelementptr inbounds nuw %struct.repository, ptr %10, i32 0, i32 10
  %12 = load ptr, ptr %11, align 8, !tbaa !77
  call void @strbuf_addstr(ptr noundef %9, ptr noundef %12)
  %13 = load ptr, ptr %6, align 8, !tbaa !8
  %14 = getelementptr inbounds nuw %struct.strbuf, ptr %13, i32 0, i32 1
  %15 = load i64, ptr %14, align 8, !tbaa !16
  %16 = icmp ne i64 %15, 0
  br i1 %16, label %17, label %32

17:                                               ; preds = %4
  %18 = load ptr, ptr %6, align 8, !tbaa !8
  %19 = getelementptr inbounds nuw %struct.strbuf, ptr %18, i32 0, i32 2
  %20 = load ptr, ptr %19, align 8, !tbaa !17
  %21 = load ptr, ptr %6, align 8, !tbaa !8
  %22 = getelementptr inbounds nuw %struct.strbuf, ptr %21, i32 0, i32 1
  %23 = load i64, ptr %22, align 8, !tbaa !16
  %24 = sub i64 %23, 1
  %25 = getelementptr inbounds nuw i8, ptr %20, i64 %24
  %26 = load i8, ptr %25, align 1, !tbaa !18
  %27 = sext i8 %26 to i32
  %28 = call i32 @git_is_dir_sep(i32 noundef %27)
  %29 = icmp ne i32 %28, 0
  br i1 %29, label %32, label %30

30:                                               ; preds = %17
  %31 = load ptr, ptr %6, align 8, !tbaa !8
  call void @strbuf_addch(ptr noundef %31, i32 noundef 47)
  br label %32

32:                                               ; preds = %30, %17, %4
  %33 = load ptr, ptr %6, align 8, !tbaa !8
  %34 = load ptr, ptr %7, align 8, !tbaa !43
  %35 = load ptr, ptr %8, align 8, !tbaa !49
  call void @strbuf_vaddf(ptr noundef %33, ptr noundef %34, ptr noundef %35)
  %36 = load ptr, ptr %6, align 8, !tbaa !8
  call void @strbuf_cleanup_path(ptr noundef %36)
  ret void
}