; Function Attrs: nounwind uwtable
define internal fastcc void @do_worktree_path(ptr %.240.val, ptr noundef %0, ptr noundef %1, ptr noundef nonnull %2) unnamed_addr #3 {
  %4 = tail call i64 @strlen(ptr noundef nonnull dereferenceable(1) %.240.val) #30
  tail call void @strbuf_add(ptr noundef %0, ptr noundef nonnull %.240.val, i64 noundef %4) #29
  %5 = getelementptr inbounds nuw i8, ptr %0, i64 8
  %6 = load i64, ptr %5, align 8, !tbaa !8
  %.not = icmp eq i64 %6, 0
  br i1 %.not, label %21, label %7

7:                                                ; preds = %3
  %8 = getelementptr inbounds nuw i8, ptr %0, i64 16
  %9 = load ptr, ptr %8, align 8, !tbaa !13
  %10 = getelementptr i8, ptr %9, i64 %6
  %11 = getelementptr i8, ptr %10, i64 -1
  %12 = load i8, ptr %11, align 1, !tbaa !14
  %.not1 = icmp eq i8 %12, 47
  br i1 %.not1, label %21, label %13

13:                                               ; preds = %7
  %14 = load i64, ptr %0, align 8, !tbaa !15
  %.not.i.i = icmp eq i64 %14, 0
  %.neg.i = add i64 %6, 1
  %.not.i = icmp eq i64 %14, %.neg.i
  %or.cond = or i1 %.not.i.i, %.not.i
  br i1 %or.cond, label %strbuf_avail.exit.thread.i, label %strbuf_addch.exit

strbuf_avail.exit.thread.i:                       ; preds = %13
  tail call void @strbuf_grow(ptr noundef nonnull %0, i64 noundef 1) #29
  %.pre.i = load i64, ptr %5, align 8, !tbaa !8
  %.pre7.i = add i64 %.pre.i, 1
  %.pre = load ptr, ptr %8, align 8, !tbaa !13
  br label %strbuf_addch.exit

strbuf_addch.exit:                                ; preds = %13, %strbuf_avail.exit.thread.i
  %15 = phi ptr [ %.pre, %strbuf_avail.exit.thread.i ], [ %9, %13 ]
  %.pre-phi.i = phi i64 [ %.pre7.i, %strbuf_avail.exit.thread.i ], [ %.neg.i, %13 ]
  %16 = phi i64 [ %.pre.i, %strbuf_avail.exit.thread.i ], [ %6, %13 ]
  store i64 %.pre-phi.i, ptr %5, align 8, !tbaa !8
  %17 = getelementptr inbounds nuw i8, ptr %15, i64 %16
  store i8 47, ptr %17, align 1, !tbaa !14
  %18 = load ptr, ptr %8, align 8, !tbaa !13
  %19 = load i64, ptr %5, align 8, !tbaa !8
  %20 = getelementptr inbounds nuw i8, ptr %18, i64 %19
  store i8 0, ptr %20, align 1, !tbaa !14
  br label %21

21:                                               ; preds = %strbuf_addch.exit, %7, %3
  tail call void @strbuf_vaddf(ptr noundef nonnull %0, ptr noundef %1, ptr noundef nonnull %2) #29
  %22 = getelementptr inbounds nuw i8, ptr %0, i64 16
  %23 = load ptr, ptr %22, align 8, !tbaa !13
  %scevgep.i.i = getelementptr i8, ptr %23, i64 2
  br label %24

24:                                               ; preds = %25, %21
  %.07.i.i.i = phi ptr [ %23, %21 ], [ %27, %25 ]
  %.06.i.idx.i.i = phi i64 [ 0, %21 ], [ %.06.i.add.i.i, %25 ]
  %exitcond.i.i = icmp eq i64 %.06.i.idx.i.i, 2
  br i1 %exitcond.i.i, label %skip_prefix.exit.i.i, label %25

25:                                               ; preds = %24
  %.06.i.ptr.i.i = getelementptr inbounds nuw i8, ptr @.str.11, i64 %.06.i.idx.i.i
  %26 = load i8, ptr %.06.i.ptr.i.i, align 1, !tbaa !14
  %27 = getelementptr inbounds nuw i8, ptr %.07.i.i.i, i64 1
  %28 = load i8, ptr %.07.i.i.i, align 1, !tbaa !14
  %.06.i.add.i.i = add nuw nsw i64 %.06.i.idx.i.i, 1
  %29 = icmp eq i8 %28, %26
  br i1 %29, label %24, label %strbuf_cleanup_path.exit, !llvm.loop !66

skip_prefix.exit.i.i:                             ; preds = %24, %skip_prefix.exit.i.i
  %.1.i.i = phi ptr [ %32, %skip_prefix.exit.i.i ], [ %scevgep.i.i, %24 ]
  %30 = load i8, ptr %.1.i.i, align 1, !tbaa !14
  %31 = icmp eq i8 %30, 47
  %32 = getelementptr inbounds nuw i8, ptr %.1.i.i, i64 1
  br i1 %31, label %skip_prefix.exit.i.i, label %cleanup_path.exit.i, !llvm.loop !67

cleanup_path.exit.i:                              ; preds = %skip_prefix.exit.i.i
  %33 = icmp ugt ptr %.1.i.i, %23
  br i1 %33, label %34, label %strbuf_cleanup_path.exit

34:                                               ; preds = %cleanup_path.exit.i
  %35 = ptrtoint ptr %.1.i.i to i64
  %36 = ptrtoint ptr %23 to i64
  %37 = sub i64 %35, %36
  tail call void @strbuf_remove(ptr noundef nonnull %0, i64 noundef 0, i64 noundef %37) #29
  br label %strbuf_cleanup_path.exit

strbuf_cleanup_path.exit:                         ; preds = %25, %cleanup_path.exit.i, %34
  ret void
}